; Function Attrs: nounwind uwtable
define dso_local void @Curl_xfer_setup_nop(ptr noundef %0) local_unnamed_addr #0 {
  %2 = getelementptr inbounds nuw i8, ptr %0, i64 232
  %3 = getelementptr inbounds nuw i8, ptr %0, i64 24
  %4 = load ptr, ptr %3, align 8, !tbaa !87
  %5 = tail call zeroext i1 @Curl_req_want_send(ptr noundef %0) #6
  %6 = getelementptr inbounds nuw i8, ptr %4, i64 920
  %7 = load i64, ptr %6, align 8
  %8 = and i64 %7, 4194304
  %.not.i = icmp eq i64 %8, 0
  br i1 %.not.i, label %9, label %13

9:                                                ; preds = %1
  %10 = getelementptr inbounds nuw i8, ptr %4, i64 1372
  %11 = load i8, ptr %10, align 4, !tbaa !160
  %12 = icmp ugt i8 %11, 19
  %brmerge.i = select i1 %12, i1 true, i1 %5
  br i1 %brmerge.i, label %13, label %16

13:                                               ; preds = %9, %1
  %14 = getelementptr inbounds nuw i8, ptr %4, i64 960
  store i32 -1, ptr %14, align 8, !tbaa !106
  %15 = getelementptr inbounds nuw i8, ptr %4, i64 964
  store i32 -1, ptr %15, align 4, !tbaa !88
  %not. = xor i1 %5, true
  br label %19

16:                                               ; preds = %9
  %17 = getelementptr inbounds nuw i8, ptr %4, i64 960
  store i32 -1, ptr %17, align 8, !tbaa !106
  %18 = getelementptr inbounds nuw i8, ptr %4, i64 964
  store i32 -1, ptr %18, align 4, !tbaa !88
  br label %19

19:                                               ; preds = %16, %13
  %.0.i = phi i1 [ true, %16 ], [ %not., %13 ]
  %20 = getelementptr inbounds nuw i8, ptr %0, i64 449
  %21 = load i32, ptr %20, align 1
  store i64 -1, ptr %2, align 8, !tbaa !117
  %22 = and i32 %21, -3211266
  store i32 %22, ptr %20, align 1
  %23 = and i32 %21, 131072
  %or.cond.not.i = icmp ne i32 %23, 0
  %or.cond = select i1 %or.cond.not.i, i1 true, i1 %.0.i
  br i1 %or.cond, label %xfer_setup.exit, label %24

24:                                               ; preds = %19
  %25 = getelementptr inbounds nuw i8, ptr %0, i64 312
  %26 = load i32, ptr %25, align 8, !tbaa !99
  %27 = or i32 %26, 2
  store i32 %27, ptr %25, align 8, !tbaa !99
  br label %xfer_setup.exit

xfer_setup.exit:                                  ; preds = %19, %24
  ret void
}